; Function Attrs: nounwind uwtable
define internal void @keyindex_destruct(ptr noundef %0) #0 {
  %2 = getelementptr inbounds nuw i8, ptr %0, i64 56
  %3 = load ptr, ptr %2, align 8, !tbaa !61
  %.not.i = icmp eq ptr %3, null
  %..i = select i1 %.not.i, ptr null, ptr %2
  %4 = getelementptr inbounds nuw i8, ptr %0, i64 120
  %5 = load ptr, ptr %4, align 8, !tbaa !64
  %6 = getelementptr inbounds nuw i8, ptr %5, i64 128
  %7 = load i32, ptr %6, align 8, !tbaa !68
  %8 = icmp sgt i32 %7, 0
  br i1 %8, label %pmix_pointer_array_get_item.exit.lr.ph, label %._crit_edge

pmix_pointer_array_get_item.exit.lr.ph:           ; preds = %1
  %9 = getelementptr inbounds nuw i8, ptr %0, i64 96
  %10 = getelementptr inbounds nuw i8, ptr %..i, i64 40
  br label %pmix_pointer_array_get_item.exit

._crit_edge:                                      ; preds = %pmix_tma_free.exit39, %1
  %.lcssa = phi ptr [ %5, %1 ], [ %55, %pmix_tma_free.exit39 ]
  %11 = tail call i32 @pthread_mutex_lock(ptr noundef nonnull %.lcssa) #15
  %12 = icmp eq i32 %11, 35
  br i1 %12, label %13, label %pmix_obj_update.exit

13:                                               ; preds = %._crit_edge
  %14 = tail call ptr @__errno_location() #16
  store i32 35, ptr %14, align 4, !tbaa !3
  tail call void @perror(ptr noundef nonnull @.str.25) #17
  tail call void @abort() #18
  unreachable

pmix_obj_update.exit:                             ; preds = %._crit_edge
  %15 = getelementptr inbounds nuw i8, ptr %.lcssa, i64 48
  %16 = load i32, ptr %15, align 8, !tbaa !16
  %17 = add nsw i32 %16, -1
  store i32 %17, ptr %15, align 8, !tbaa !16
  %18 = tail call i32 @pthread_mutex_unlock(ptr noundef nonnull %.lcssa) #15
  %19 = icmp eq i32 %17, 0
  br i1 %19, label %60, label %77

pmix_pointer_array_get_item.exit:                 ; preds = %pmix_pointer_array_get_item.exit.lr.ph, %pmix_tma_free.exit39
  %indvars.iv = phi i64 [ 0, %pmix_pointer_array_get_item.exit.lr.ph ], [ %indvars.iv.next, %pmix_tma_free.exit39 ]
  %20 = phi ptr [ %5, %pmix_pointer_array_get_item.exit.lr.ph ], [ %55, %pmix_tma_free.exit39 ]
  %21 = getelementptr inbounds nuw i8, ptr %20, i64 152
  %22 = load ptr, ptr %21, align 8, !tbaa !71
  %23 = getelementptr inbounds nuw ptr, ptr %22, i64 %indvars.iv
  %24 = load ptr, ptr %23, align 8, !tbaa !18
  %.not29 = icmp eq ptr %24, null
  br i1 %.not29, label %pmix_tma_free.exit39, label %25

25:                                               ; preds = %pmix_pointer_array_get_item.exit
  %26 = getelementptr inbounds nuw i8, ptr %24, i64 8
  %27 = load ptr, ptr %26, align 8, !tbaa !72
  %.not30 = icmp eq ptr %27, null
  br i1 %.not30, label %pmix_tma_free.exit, label %28

28:                                               ; preds = %25
  br i1 %.not.i, label %pmix_tma_free.exit.thread45, label %pmix_tma_free.exit.thread

pmix_tma_free.exit:                               ; preds = %25
  %29 = getelementptr inbounds nuw i8, ptr %24, i64 16
  %30 = load ptr, ptr %29, align 8, !tbaa !76
  %.not31 = icmp eq ptr %30, null
  br i1 %.not31, label %pmix_tma_free.exit36, label %36

pmix_tma_free.exit.thread45:                      ; preds = %28
  tail call void @free(ptr noundef nonnull %27) #15
  %31 = getelementptr inbounds nuw i8, ptr %24, i64 16
  %32 = load ptr, ptr %31, align 8, !tbaa !76
  %.not3146 = icmp eq ptr %32, null
  br i1 %.not3146, label %pmix_tma_free.exit36, label %.thread47

pmix_tma_free.exit.thread:                        ; preds = %28
  %33 = load ptr, ptr %9, align 8, !tbaa !77
  tail call void %33(ptr noundef nonnull %2, ptr noundef nonnull %27) #15
  %34 = getelementptr inbounds nuw i8, ptr %24, i64 16
  %35 = load ptr, ptr %34, align 8, !tbaa !76
  %.not3144 = icmp eq ptr %35, null
  br i1 %.not3144, label %pmix_tma_free.exit36, label %.thread

36:                                               ; preds = %pmix_tma_free.exit
  br i1 %.not.i, label %.thread47, label %.thread

.thread:                                          ; preds = %pmix_tma_free.exit.thread, %36
  %37 = phi ptr [ %30, %36 ], [ %35, %pmix_tma_free.exit.thread ]
  %38 = load ptr, ptr %9, align 8, !tbaa !77
  tail call void %38(ptr noundef nonnull %2, ptr noundef nonnull %37) #15
  br label %pmix_tma_free.exit36

.thread47:                                        ; preds = %pmix_tma_free.exit.thread45, %36
  %39 = phi ptr [ %30, %36 ], [ %32, %pmix_tma_free.exit.thread45 ]
  tail call void @free(ptr noundef nonnull %39) #15
  br label %pmix_tma_free.exit36

pmix_tma_free.exit36:                             ; preds = %.thread47, %.thread, %pmix_tma_free.exit.thread45, %pmix_tma_free.exit.thread, %pmix_tma_free.exit
  %40 = getelementptr inbounds nuw i8, ptr %24, i64 32
  %41 = load ptr, ptr %40, align 8, !tbaa !78
  %.not32 = icmp eq ptr %41, null
  br i1 %.not32, label %pmix_bfrops_base_tma_argv_free.exit, label %42

42:                                               ; preds = %pmix_tma_free.exit36
  %43 = load ptr, ptr %41, align 8, !tbaa !79
  %.not12.i = icmp eq ptr %43, null
  br i1 %.not12.i, label %._crit_edge.i, label %.lr.ph.i

.lr.ph.i:                                         ; preds = %42
  br i1 %.not.i, label %pmix_tma_free.exit11.us.i, label %pmix_tma_free.exit11.i

pmix_tma_free.exit11.us.i:                        ; preds = %.lr.ph.i, %pmix_tma_free.exit11.us.i
  %44 = phi ptr [ %46, %pmix_tma_free.exit11.us.i ], [ %43, %.lr.ph.i ]
  %.013.us.i = phi ptr [ %45, %pmix_tma_free.exit11.us.i ], [ %41, %.lr.ph.i ]
  tail call void @free(ptr noundef nonnull %44) #15
  %45 = getelementptr inbounds nuw i8, ptr %.013.us.i, i64 8
  %46 = load ptr, ptr %45, align 8, !tbaa !79
  %.not.us.i = icmp eq ptr %46, null
  br i1 %.not.us.i, label %._crit_edge.i, label %pmix_tma_free.exit11.us.i, !llvm.loop !80

._crit_edge.i:                                    ; preds = %pmix_tma_free.exit11.us.i, %42
  br i1 %.not.i, label %pmix_bfrops_base_tma_argv_free.exit.thread, label %._crit_edge.thread.i

._crit_edge.thread.i:                             ; preds = %pmix_tma_free.exit11.i, %._crit_edge.i
  %47 = load ptr, ptr %10, align 8, !tbaa !77
  tail call void %47(ptr noundef nonnull %..i, ptr noundef nonnull %41) #15
  br label %pmix_bfrops_base_tma_argv_free.exit

pmix_bfrops_base_tma_argv_free.exit.thread:       ; preds = %._crit_edge.i
  tail call void @free(ptr noundef nonnull %41) #15
  br label %54

pmix_tma_free.exit11.i:                           ; preds = %.lr.ph.i, %pmix_tma_free.exit11.i
  %48 = phi ptr [ %51, %pmix_tma_free.exit11.i ], [ %43, %.lr.ph.i ]
  %.013.i = phi ptr [ %50, %pmix_tma_free.exit11.i ], [ %41, %.lr.ph.i ]
  %49 = load ptr, ptr %10, align 8, !tbaa !77
  tail call void %49(ptr noundef nonnull %..i, ptr noundef nonnull %48) #15
  %50 = getelementptr inbounds nuw i8, ptr %.013.i, i64 8
  %51 = load ptr, ptr %50, align 8, !tbaa !79
  %.not.i37 = icmp eq ptr %51, null
  br i1 %.not.i37, label %._crit_edge.thread.i, label %pmix_tma_free.exit11.i, !llvm.loop !80

pmix_bfrops_base_tma_argv_free.exit:              ; preds = %._crit_edge.thread.i, %pmix_tma_free.exit36
  br i1 %.not.i, label %54, label %52

52:                                               ; preds = %pmix_bfrops_base_tma_argv_free.exit
  %53 = load ptr, ptr %9, align 8, !tbaa !77
  tail call void %53(ptr noundef nonnull %2, ptr noundef nonnull %24) #15
  br label %pmix_tma_free.exit39

54:                                               ; preds = %pmix_bfrops_base_tma_argv_free.exit.thread, %pmix_bfrops_base_tma_argv_free.exit
  tail call void @free(ptr noundef nonnull %24) #15
  br label %pmix_tma_free.exit39

pmix_tma_free.exit39:                             ; preds = %54, %52, %pmix_pointer_array_get_item.exit
  %indvars.iv.next = add nuw nsw i64 %indvars.iv, 1
  %55 = load ptr, ptr %4, align 8, !tbaa !64
  %56 = getelementptr inbounds nuw i8, ptr %55, i64 128
  %57 = load i32, ptr %56, align 8, !tbaa !68
  %58 = sext i32 %57 to i64
  %59 = icmp slt i64 %indvars.iv.next, %58
  br i1 %59, label %pmix_pointer_array_get_item.exit, label %._crit_edge, !llvm.loop !81

60:                                               ; preds = %pmix_obj_update.exit
  %61 = getelementptr inbounds nuw i8, ptr %.lcssa, i64 40
  %62 = load ptr, ptr %61, align 8, !tbaa !13
  %63 = getelementptr inbounds nuw i8, ptr %62, i64 48
  %64 = load ptr, ptr %63, align 8, !tbaa !28
  %65 = load ptr, ptr %64, align 8, !tbaa !18
  %.not6.i = icmp eq ptr %65, null
  br i1 %.not6.i, label %pmix_obj_run_destructors.exit, label %.lr.ph.i40

.lr.ph.i40:                                       ; preds = %60, %.lr.ph.i40
  %66 = phi ptr [ %68, %.lr.ph.i40 ], [ %65, %60 ]
  %.07.i = phi ptr [ %67, %.lr.ph.i40 ], [ %64, %60 ]
  tail call void %66(ptr noundef nonnull %.lcssa) #15
  %67 = getelementptr inbounds nuw i8, ptr %.07.i, i64 8
  %68 = load ptr, ptr %67, align 8, !tbaa !18
  %.not.i41 = icmp eq ptr %68, null
  br i1 %.not.i41, label %pmix_obj_run_destructors.exit, label %.lr.ph.i40, !llvm.loop !29

pmix_obj_run_destructors.exit:                    ; preds = %.lr.ph.i40, %60
  %69 = getelementptr inbounds nuw i8, ptr %.lcssa, i64 96
  %70 = load ptr, ptr %69, align 8, !tbaa !30
  %.not = icmp eq ptr %70, null
  br i1 %.not, label %74, label %71

71:                                               ; preds = %pmix_obj_run_destructors.exit
  %72 = getelementptr inbounds nuw i8, ptr %.lcssa, i64 56
  %73 = load ptr, ptr %4, align 8, !tbaa !64
  tail call void %70(ptr noundef nonnull %72, ptr noundef %73) #15
  br label %76

74:                                               ; preds = %pmix_obj_run_destructors.exit
  %75 = load ptr, ptr %4, align 8, !tbaa !64
  tail call void @free(ptr noundef %75) #15
  br label %76

76:                                               ; preds = %74, %71
  store ptr null, ptr %4, align 8, !tbaa !64
  br label %77

77:                                               ; preds = %76, %pmix_obj_update.exit
  ret void
}